; ModuleID = '21/304.c'
source_filename = "21/304.c"
target datalayout = "e-m:e-p270:32:32-p271:32:32-p272:64:64-i64:64-f80:128-n8:16:32:64-S128"
target triple = "x86_64-pc-linux-gnu"

@.str = private unnamed_addr constant [3 x i8] c"%d\00", align 1
@.str.1 = private unnamed_addr constant [5 x i8] c"%d%c\00", align 1

; Function Attrs: noinline nounwind uwtable
define dso_local void @main() #0 {
  %1 = alloca i32, align 4
  %2 = alloca i32, align 4
  %3 = alloca i32, align 4
  %4 = alloca i32, align 4
  %5 = alloca i32, align 4
  %6 = alloca i32, align 4
  %7 = alloca [300 x i32], align 16
  %8 = alloca [300 x i32], align 16
  store i32 0, i32* %3, align 4
  store i32 0, i32* %5, align 4
  store i32 0, i32* %6, align 4
  %9 = call i32 (i8*, ...) @__isoc99_scanf(i8* getelementptr inbounds ([3 x i8], [3 x i8]* @.str, i64 0, i64 0), i32* %2)
  store i32 0, i32* %1, align 4
  br label %10

10:                                               ; preds = %19, %0
  %11 = load i32, i32* %1, align 4
  %12 = load i32, i32* %2, align 4
  %13 = icmp slt i32 %11, %12
  br i1 %13, label %14, label %22

14:                                               ; preds = %10
  %15 = load i32, i32* %1, align 4
  %16 = sext i32 %15 to i64
  %17 = getelementptr inbounds [300 x i32], [300 x i32]* %7, i64 0, i64 %16
  %18 = call i32 (i8*, ...) @__isoc99_scanf(i8* getelementptr inbounds ([3 x i8], [3 x i8]* @.str, i64 0, i64 0), i32* %17)
  br label %19

19:                                               ; preds = %14
  %20 = load i32, i32* %1, align 4
  %21 = add nsw i32 %20, 1
  store i32 %21, i32* %1, align 4
  br label %10

22:                                               ; preds = %10
  store i32 0, i32* %1, align 4
  br label %23

23:                                               ; preds = %34, %22
  %24 = load i32, i32* %1, align 4
  %25 = load i32, i32* %2, align 4
  %26 = icmp slt i32 %24, %25
  br i1 %26, label %27, label %37

27:                                               ; preds = %23
  %28 = load i32, i32* %1, align 4
  %29 = sext i32 %28 to i64
  %30 = getelementptr inbounds [300 x i32], [300 x i32]* %7, i64 0, i64 %29
  %31 = load i32, i32* %30, align 4
  %32 = load i32, i32* %5, align 4
  %33 = add nsw i32 %32, %31
  store i32 %33, i32* %5, align 4
  br label %34

34:                                               ; preds = %27
  %35 = load i32, i32* %1, align 4
  %36 = add nsw i32 %35, 1
  store i32 %36, i32* %1, align 4
  br label %23

37:                                               ; preds = %23
  store i32 0, i32* %1, align 4
  br label %38

38:                                               ; preds = %84, %37
  %39 = load i32, i32* %1, align 4
  %40 = load i32, i32* %2, align 4
  %41 = icmp slt i32 %39, %40
  br i1 %41, label %42, label %87

42:                                               ; preds = %38
  %43 = load i32, i32* %2, align 4
  %44 = load i32, i32* %1, align 4
  %45 = sext i32 %44 to i64
  %46 = getelementptr inbounds [300 x i32], [300 x i32]* %7, i64 0, i64 %45
  %47 = load i32, i32* %46, align 4
  %48 = mul nsw i32 %43, %47
  %49 = load i32, i32* %5, align 4
  %50 = sub nsw i32 %48, %49
  %51 = load i32, i32* %6, align 4
  %52 = icmp sge i32 %50, %51
  br i1 %52, label %53, label %62

53:                                               ; preds = %42
  %54 = load i32, i32* %2, align 4
  %55 = load i32, i32* %1, align 4
  %56 = sext i32 %55 to i64
  %57 = getelementptr inbounds [300 x i32], [300 x i32]* %7, i64 0, i64 %56
  %58 = load i32, i32* %57, align 4
  %59 = mul nsw i32 %54, %58
  %60 = load i32, i32* %5, align 4
  %61 = sub nsw i32 %59, %60
  store i32 %61, i32* %6, align 4
  br label %83

62:                                               ; preds = %42
  %63 = load i32, i32* %5, align 4
  %64 = load i32, i32* %2, align 4
  %65 = load i32, i32* %1, align 4
  %66 = sext i32 %65 to i64
  %67 = getelementptr inbounds [300 x i32], [300 x i32]* %7, i64 0, i64 %66
  %68 = load i32, i32* %67, align 4
  %69 = mul nsw i32 %64, %68
  %70 = sub nsw i32 %63, %69
  %71 = load i32, i32* %6, align 4
  %72 = icmp sge i32 %70, %71
  br i1 %72, label %73, label %82

73:                                               ; preds = %62
  %74 = load i32, i32* %5, align 4
  %75 = load i32, i32* %2, align 4
  %76 = load i32, i32* %1, align 4
  %77 = sext i32 %76 to i64
  %78 = getelementptr inbounds [300 x i32], [300 x i32]* %7, i64 0, i64 %77
  %79 = load i32, i32* %78, align 4
  %80 = mul nsw i32 %75, %79
  %81 = sub nsw i32 %74, %80
  store i32 %81, i32* %6, align 4
  br label %82

82:                                               ; preds = %73, %62
  br label %83

83:                                               ; preds = %82, %53
  br label %84

84:                                               ; preds = %83
  %85 = load i32, i32* %1, align 4
  %86 = add nsw i32 %85, 1
  store i32 %86, i32* %1, align 4
  br label %38

87:                                               ; preds = %38
  store i32 0, i32* %1, align 4
  br label %88

88:                                               ; preds = %127, %87
  %89 = load i32, i32* %1, align 4
  %90 = load i32, i32* %2, align 4
  %91 = icmp slt i32 %89, %90
  br i1 %91, label %92, label %130

92:                                               ; preds = %88
  %93 = load i32, i32* %2, align 4
  %94 = load i32, i32* %1, align 4
  %95 = sext i32 %94 to i64
  %96 = getelementptr inbounds [300 x i32], [300 x i32]* %7, i64 0, i64 %95
  %97 = load i32, i32* %96, align 4
  %98 = mul nsw i32 %93, %97
  %99 = load i32, i32* %5, align 4
  %100 = sub nsw i32 %98, %99
  %101 = load i32, i32* %6, align 4
  %102 = sub nsw i32 %100, %101
  %103 = icmp eq i32 %102, 0
  br i1 %103, label %116, label %104

104:                                              ; preds = %92
  %105 = load i32, i32* %5, align 4
  %106 = load i32, i32* %2, align 4
  %107 = load i32, i32* %1, align 4
  %108 = sext i32 %107 to i64
  %109 = getelementptr inbounds [300 x i32], [300 x i32]* %7, i64 0, i64 %108
  %110 = load i32, i32* %109, align 4
  %111 = mul nsw i32 %106, %110
  %112 = sub nsw i32 %105, %111
  %113 = load i32, i32* %6, align 4
  %114 = sub nsw i32 %112, %113
  %115 = icmp eq i32 %114, 0
  br i1 %115, label %116, label %126

116:                                              ; preds = %104, %92
  %117 = load i32, i32* %1, align 4
  %118 = sext i32 %117 to i64
  %119 = getelementptr inbounds [300 x i32], [300 x i32]* %7, i64 0, i64 %118
  %120 = load i32, i32* %119, align 4
  %121 = load i32, i32* %3, align 4
  %122 = sext i32 %121 to i64
  %123 = getelementptr inbounds [300 x i32], [300 x i32]* %8, i64 0, i64 %122
  store i32 %120, i32* %123, align 4
  %124 = load i32, i32* %3, align 4
  %125 = add nsw i32 %124, 1
  store i32 %125, i32* %3, align 4
  br label %126

126:                                              ; preds = %116, %104
  br label %127

127:                                              ; preds = %126
  %128 = load i32, i32* %1, align 4
  %129 = add nsw i32 %128, 1
  store i32 %129, i32* %1, align 4
  br label %88

130:                                              ; preds = %88
  store i32 0, i32* %4, align 4
  br label %131

131:                                              ; preds = %147, %130
  %132 = load i32, i32* %4, align 4
  %133 = load i32, i32* %3, align 4
  %134 = icmp slt i32 %132, %133
  br i1 %134, label %135, label %150

135:                                              ; preds = %131
  %136 = load i32, i32* %4, align 4
  %137 = sext i32 %136 to i64
  %138 = getelementptr inbounds [300 x i32], [300 x i32]* %8, i64 0, i64 %137
  %139 = load i32, i32* %138, align 4
  %140 = load i32, i32* %4, align 4
  %141 = load i32, i32* %3, align 4
  %142 = sub nsw i32 %141, 1
  %143 = icmp ne i32 %140, %142
  %144 = zext i1 %143 to i64
  %145 = select i1 %143, i32 44, i32 10
  %146 = call i32 (i8*, ...) @printf(i8* getelementptr inbounds ([5 x i8], [5 x i8]* @.str.1, i64 0, i64 0), i32 %139, i32 %145)
  br label %147

147:                                              ; preds = %135
  %148 = load i32, i32* %4, align 4
  %149 = add nsw i32 %148, 1
  store i32 %149, i32* %4, align 4
  br label %131

150:                                              ; preds = %131
  ret void
}

declare dso_local i32 @__isoc99_scanf(i8*, ...) #1

declare dso_local i32 @printf(i8*, ...) #1


!llvm.module.flags = !{!0}
!llvm.ident = !{!1}

!0 = !{i32 1, !"wchar_size", i32 4}
!1 = !{!"clang version 10.0.0-4ubuntu1 "}
